target datalayout = "e-m:e-p270:32:32-p271:32:32-p272:64:64-i64:64-i128:128-f80:128-n8:16:32:64-S128"
target triple = "x86_64-pc-linux-gnu"

%class.LogTagSet = type { ptr, i64, [5 x i32], [4 x i8], %class.LogOutputList, %class.LogDecorators, ptr }
%class.LogOutputList = type <{ [6 x ptr], i32, [4 x i8] }>
%class.LogDecorators = type { i32 }

@ExplicitGCInvokesConcurrent = external global i8, align 1
@ShenandoahImplicitGCInvokesConcurrent = external global i8, align 1
@ShenandoahPacing = external global i8, align 1
@.str = private unnamed_addr constant [52 x i8] c"Heuristics ergonomically sets -XX:-ShenandoahPacing\00", align 1
@ShenandoahDegeneratedGC = external global i8, align 1
@.str.4 = private unnamed_addr constant [58 x i8] c"Heuristics ergonomically sets -XX:ShenandoahEvacReserve=0\00", align 1
@ShenandoahEvacReserve = external global i64, align 8
@ShenandoahLoadRefBarrier = external global i8, align 1
@.str.5 = private unnamed_addr constant [60 x i8] c"Heuristics ergonomically sets -XX:-ShenandoahLoadRefBarrier\00", align 1
@ShenandoahSATBBarrier = external global i8, align 1
@.str.6 = private unnamed_addr constant [57 x i8] c"Heuristics ergonomically sets -XX:-ShenandoahSATBBarrier\00", align 1
@ShenandoahIUBarrier = external global i8, align 1
@.str.7 = private unnamed_addr constant [55 x i8] c"Heuristics ergonomically sets -XX:-ShenandoahIUBarrier\00", align 1
@ShenandoahCASBarrier = external global i8, align 1
@.str.8 = private unnamed_addr constant [56 x i8] c"Heuristics ergonomically sets -XX:-ShenandoahCASBarrier\00", align 1
@ShenandoahCloneBarrier = external global i8, align 1
@.str.9 = private unnamed_addr constant [58 x i8] c"Heuristics ergonomically sets -XX:-ShenandoahCloneBarrier\00", align 1
@ShenandoahStackWatermarkBarrier = external global i8, align 1
@.str.10 = private unnamed_addr constant [67 x i8] c"Heuristics ergonomically sets -XX:-ShenandoahStackWatermarkBarrier\00", align 1
@_ZN16LogTagSetMappingILN6LogTag4typeE49ELS1_0ELS1_0ELS1_0ELS1_0ELS1_0EE7_tagsetE = linkonce_odr hidden global %class.LogTagSet zeroinitializer, comdat, align 8

; Function Attrs: mustprogress nounwind uwtable
define linkonce_odr hidden noundef zeroext i1 @_ZNK13LogOutputList8is_levelEN8LogLevel4typeE(ptr noundef nonnull align 8 dereferenceable(52) %0, i32 noundef %1) #1 comdat align 2 {
  %3 = alloca ptr, align 8
  %4 = alloca i32, align 4
  store ptr %0, ptr %3, align 8
  store i32 %1, ptr %4, align 4
  %5 = load ptr, ptr %3, align 8
  %6 = getelementptr inbounds %class.LogOutputList, ptr %5, i32 0, i32 0
  %7 = load i32, ptr %4, align 4
  %8 = zext i32 %7 to i64
  %9 = getelementptr inbounds [6 x ptr], ptr %6, i64 0, i64 %8
  %10 = load volatile ptr, ptr %9, align 8
  %11 = icmp ne ptr %10, null
  ret i1 %11
}

; Function Attrs: mustprogress nounwind uwtable
define linkonce_odr hidden noundef zeroext i1 @_ZNK9LogTagSet8is_levelEN8LogLevel4typeE(ptr noundef nonnull align 8 dereferenceable(112) %0, i32 noundef %1) #1 comdat align 2 {
  %3 = alloca ptr, align 8
  %4 = alloca i32, align 4
  store ptr %0, ptr %3, align 8
  store i32 %1, ptr %4, align 4
  %5 = load ptr, ptr %3, align 8
  %6 = getelementptr inbounds %class.LogTagSet, ptr %5, i32 0, i32 4
  %7 = load i32, ptr %4, align 4
  %8 = call noundef zeroext i1 @_ZNK13LogOutputList8is_levelEN8LogLevel4typeE(ptr noundef nonnull align 8 dereferenceable(52) %6, i32 noundef %7)
  ret i1 %8
}

; Function Attrs: mustprogress nounwind uwtable
define linkonce_odr hidden noundef nonnull align 8 dereferenceable(112) ptr @_ZN16LogTagSetMappingILN6LogTag4typeE49ELS1_0ELS1_0ELS1_0ELS1_0ELS1_0EE6tagsetEv() #1 comdat align 2 {
  ret ptr @_ZN16LogTagSetMappingILN6LogTag4typeE49ELS1_0ELS1_0ELS1_0ELS1_0ELS1_0EE7_tagsetE
}

; Function Attrs: mustprogress nounwind uwtable
define linkonce_odr hidden noundef zeroext i1 @_ZN7LogImplILN6LogTag4typeE49ELS1_0ELS1_0ELS1_0ELS1_0ELS1_0EE8is_levelEN8LogLevel4typeE(i32 noundef %0) #1 comdat align 2 {
  %2 = alloca i32, align 4
  store i32 %0, ptr %2, align 4
  %3 = call noundef nonnull align 8 dereferenceable(112) ptr @_ZN16LogTagSetMappingILN6LogTag4typeE49ELS1_0ELS1_0ELS1_0ELS1_0ELS1_0EE6tagsetEv()
  %4 = load i32, ptr %2, align 4
  %5 = call noundef zeroext i1 @_ZNK9LogTagSet8is_levelEN8LogLevel4typeE(ptr noundef nonnull align 8 dereferenceable(112) %3, i32 noundef %4)
  ret i1 %5
}

; Function Attrs: mustprogress nounwind uwtable
define hidden void @_ZNK21ShenandoahPassiveMode16initialize_flagsEv(ptr noundef nonnull align 8 dereferenceable(8) %0) unnamed_addr #1 align 2 {
  %2 = alloca ptr, align 8
  store ptr %0, ptr %2, align 8
  store i8 0, ptr @ExplicitGCInvokesConcurrent, align 1
  store i8 0, ptr @ShenandoahImplicitGCInvokesConcurrent, align 1
  br label %3

3:                                                ; preds = %1
  %4 = call noundef zeroext i1 @_ZN7JVMFlag10is_defaultE12JVMFlagsEnum(i32 noundef 1033)
  br i1 %4, label %5, label %13

5:                                                ; preds = %3
  %6 = load i8, ptr @ShenandoahPacing, align 1
  %7 = trunc i8 %6 to i1
  br i1 %7, label %8, label %13

8:                                                ; preds = %5
  %9 = call noundef zeroext i1 @_ZN7LogImplILN6LogTag4typeE49ELS1_0ELS1_0ELS1_0ELS1_0ELS1_0EE8is_levelEN8LogLevel4typeE(i32 noundef 3)
  br i1 %9, label %11, label %10

10:                                               ; preds = %8
  br label %12

11:                                               ; preds = %8
  call void (ptr, ...) @_ZN7LogImplILN6LogTag4typeE49ELS1_0ELS1_0ELS1_0ELS1_0ELS1_0EE5writeILN8LogLevel4typeE3EEEvPKcz(ptr noundef @.str)
  br label %12

12:                                               ; preds = %11, %10
  store i8 0, ptr @ShenandoahPacing, align 1
  br label %13

13:                                               ; preds = %12, %5, %3
  br label %14

14:                                               ; preds = %13
  %15 = load i8, ptr @ShenandoahDegeneratedGC, align 1
  %16 = trunc i8 %15 to i1
  br i1 %16, label %27, label %17

17:                                               ; preds = %14
  br label %18

18:                                               ; preds = %17
  %19 = call noundef zeroext i1 @_ZN7JVMFlag10is_defaultE12JVMFlagsEnum(i32 noundef 1030)
  br i1 %19, label %20, label %25

20:                                               ; preds = %18
  %21 = call noundef zeroext i1 @_ZN7LogImplILN6LogTag4typeE49ELS1_0ELS1_0ELS1_0ELS1_0ELS1_0EE8is_levelEN8LogLevel4typeE(i32 noundef 3)
  br i1 %21, label %23, label %22

22:                                               ; preds = %20
  br label %24

23:                                               ; preds = %20
  call void (ptr, ...) @_ZN7LogImplILN6LogTag4typeE49ELS1_0ELS1_0ELS1_0ELS1_0ELS1_0EE5writeILN8LogLevel4typeE3EEEvPKcz(ptr noundef @.str.4)
  br label %24

24:                                               ; preds = %23, %22
  store i64 0, ptr @ShenandoahEvacReserve, align 8
  br label %25

25:                                               ; preds = %24, %18
  br label %26

26:                                               ; preds = %25
  br label %27

27:                                               ; preds = %26, %14
  br label %28

28:                                               ; preds = %27
  %29 = call noundef zeroext i1 @_ZN7JVMFlag10is_defaultE12JVMFlagsEnum(i32 noundef 1055)
  br i1 %29, label %30, label %38

30:                                               ; preds = %28
  %31 = load i8, ptr @ShenandoahLoadRefBarrier, align 1
  %32 = trunc i8 %31 to i1
  br i1 %32, label %33, label %38

33:                                               ; preds = %30
  %34 = call noundef zeroext i1 @_ZN7LogImplILN6LogTag4typeE49ELS1_0ELS1_0ELS1_0ELS1_0ELS1_0EE8is_levelEN8LogLevel4typeE(i32 noundef 3)
  br i1 %34, label %36, label %35

35:                                               ; preds = %33
  br label %37

36:                                               ; preds = %33
  call void (ptr, ...) @_ZN7LogImplILN6LogTag4typeE49ELS1_0ELS1_0ELS1_0ELS1_0ELS1_0EE5writeILN8LogLevel4typeE3EEEvPKcz(ptr noundef @.str.5)
  br label %37

37:                                               ; preds = %36, %35
  store i8 0, ptr @ShenandoahLoadRefBarrier, align 1
  br label %38

38:                                               ; preds = %37, %30, %28
  br label %39

39:                                               ; preds = %38
  br label %40

40:                                               ; preds = %39
  %41 = call noundef zeroext i1 @_ZN7JVMFlag10is_defaultE12JVMFlagsEnum(i32 noundef 1051)
  br i1 %41, label %42, label %50

42:                                               ; preds = %40
  %43 = load i8, ptr @ShenandoahSATBBarrier, align 1
  %44 = trunc i8 %43 to i1
  br i1 %44, label %45, label %50

45:                                               ; preds = %42
  %46 = call noundef zeroext i1 @_ZN7LogImplILN6LogTag4typeE49ELS1_0ELS1_0ELS1_0ELS1_0ELS1_0EE8is_levelEN8LogLevel4typeE(i32 noundef 3)
  br i1 %46, label %48, label %47

47:                                               ; preds = %45
  br label %49

48:                                               ; preds = %45
  call void (ptr, ...) @_ZN7LogImplILN6LogTag4typeE49ELS1_0ELS1_0ELS1_0ELS1_0ELS1_0EE5writeILN8LogLevel4typeE3EEEvPKcz(ptr noundef @.str.6)
  br label %49

49:                                               ; preds = %48, %47
  store i8 0, ptr @ShenandoahSATBBarrier, align 1
  br label %50

50:                                               ; preds = %49, %42, %40
  br label %51

51:                                               ; preds = %50
  br label %52

52:                                               ; preds = %51
  %53 = call noundef zeroext i1 @_ZN7JVMFlag10is_defaultE12JVMFlagsEnum(i32 noundef 1052)
  br i1 %53, label %54, label %62

54:                                               ; preds = %52
  %55 = load i8, ptr @ShenandoahIUBarrier, align 1
  %56 = trunc i8 %55 to i1
  br i1 %56, label %57, label %62

57:                                               ; preds = %54
  %58 = call noundef zeroext i1 @_ZN7LogImplILN6LogTag4typeE49ELS1_0ELS1_0ELS1_0ELS1_0ELS1_0EE8is_levelEN8LogLevel4typeE(i32 noundef 3)
  br i1 %58, label %60, label %59

59:                                               ; preds = %57
  br label %61

60:                                               ; preds = %57
  call void (ptr, ...) @_ZN7LogImplILN6LogTag4typeE49ELS1_0ELS1_0ELS1_0ELS1_0ELS1_0EE5writeILN8LogLevel4typeE3EEEvPKcz(ptr noundef @.str.7)
  br label %61

61:                                               ; preds = %60, %59
  store i8 0, ptr @ShenandoahIUBarrier, align 1
  br label %62

62:                                               ; preds = %61, %54, %52
  br label %63

63:                                               ; preds = %62
  br label %64

64:                                               ; preds = %63
  %65 = call noundef zeroext i1 @_ZN7JVMFlag10is_defaultE12JVMFlagsEnum(i32 noundef 1053)
  br i1 %65, label %66, label %74

66:                                               ; preds = %64
  %67 = load i8, ptr @ShenandoahCASBarrier, align 1
  %68 = trunc i8 %67 to i1
  br i1 %68, label %69, label %74

69:                                               ; preds = %66
  %70 = call noundef zeroext i1 @_ZN7LogImplILN6LogTag4typeE49ELS1_0ELS1_0ELS1_0ELS1_0ELS1_0EE8is_levelEN8LogLevel4typeE(i32 noundef 3)
  br i1 %70, label %72, label %71

71:                                               ; preds = %69
  br label %73

72:                                               ; preds = %69
  call void (ptr, ...) @_ZN7LogImplILN6LogTag4typeE49ELS1_0ELS1_0ELS1_0ELS1_0ELS1_0EE5writeILN8LogLevel4typeE3EEEvPKcz(ptr noundef @.str.8)
  br label %73

73:                                               ; preds = %72, %71
  store i8 0, ptr @ShenandoahCASBarrier, align 1
  br label %74

74:                                               ; preds = %73, %66, %64
  br label %75

75:                                               ; preds = %74
  br label %76

76:                                               ; preds = %75
  %77 = call noundef zeroext i1 @_ZN7JVMFlag10is_defaultE12JVMFlagsEnum(i32 noundef 1054)
  br i1 %77, label %78, label %86

78:                                               ; preds = %76
  %79 = load i8, ptr @ShenandoahCloneBarrier, align 1
  %80 = trunc i8 %79 to i1
  br i1 %80, label %81, label %86

81:                                               ; preds = %78
  %82 = call noundef zeroext i1 @_ZN7LogImplILN6LogTag4typeE49ELS1_0ELS1_0ELS1_0ELS1_0ELS1_0EE8is_levelEN8LogLevel4typeE(i32 noundef 3)
  br i1 %82, label %84, label %83

83:                                               ; preds = %81
  br label %85

84:                                               ; preds = %81
  call void (ptr, ...) @_ZN7LogImplILN6LogTag4typeE49ELS1_0ELS1_0ELS1_0ELS1_0ELS1_0EE5writeILN8LogLevel4typeE3EEEvPKcz(ptr noundef @.str.9)
  br label %85

85:                                               ; preds = %84, %83
  store i8 0, ptr @ShenandoahCloneBarrier, align 1
  br label %86

86:                                               ; preds = %85, %78, %76
  br label %87

87:                                               ; preds = %86
  br label %88

88:                                               ; preds = %87
  %89 = call noundef zeroext i1 @_ZN7JVMFlag10is_defaultE12JVMFlagsEnum(i32 noundef 1056)
  br i1 %89, label %90, label %98

90:                                               ; preds = %88
  %91 = load i8, ptr @ShenandoahStackWatermarkBarrier, align 1
  %92 = trunc i8 %91 to i1
  br i1 %92, label %93, label %98

93:                                               ; preds = %90
  %94 = call noundef zeroext i1 @_ZN7LogImplILN6LogTag4typeE49ELS1_0ELS1_0ELS1_0ELS1_0ELS1_0EE8is_levelEN8LogLevel4typeE(i32 noundef 3)
  br i1 %94, label %96, label %95

95:                                               ; preds = %93
  br label %97

96:                                               ; preds = %93
  call void (ptr, ...) @_ZN7LogImplILN6LogTag4typeE49ELS1_0ELS1_0ELS1_0ELS1_0ELS1_0EE5writeILN8LogLevel4typeE3EEEvPKcz(ptr noundef @.str.10)
  br label %97

97:                                               ; preds = %96, %95
  store i8 0, ptr @ShenandoahStackWatermarkBarrier, align 1
  br label %98

98:                                               ; preds = %97, %90, %88
  br label %99

99:                                               ; preds = %98
  ret void
}