; Function Attrs: mustprogress nounwind uwtable
define hidden void @_ZNK21ShenandoahPassiveMode16initialize_flagsEv(ptr nocapture nonnull readnone align 8 %0) unnamed_addr #0 align 2 {
  store i8 0, ptr @ExplicitGCInvokesConcurrent, align 1
  store i8 0, ptr @ShenandoahImplicitGCInvokesConcurrent, align 1
  %2 = tail call noundef zeroext i1 @_ZN7JVMFlag10is_defaultE12JVMFlagsEnum(i32 noundef 1033) #4
  br i1 %2, label %3, label %10

3:                                                ; preds = %1
  %4 = load i8, ptr @ShenandoahPacing, align 1
  %5 = trunc i8 %4 to i1
  br i1 %5, label %6, label %10

6:                                                ; preds = %3
  %7 = load volatile ptr, ptr getelementptr inbounds (i8, ptr @_ZN16LogTagSetMappingILN6LogTag4typeE49ELS1_0ELS1_0ELS1_0ELS1_0ELS1_0EE7_tagsetE, i64 64), align 8
  %.not = icmp eq ptr %7, null
  br i1 %.not, label %9, label %8

8:                                                ; preds = %6
  tail call void (ptr, ...) @_ZN7LogImplILN6LogTag4typeE49ELS1_0ELS1_0ELS1_0ELS1_0ELS1_0EE5writeILN8LogLevel4typeE3EEEvPKcz(ptr noundef nonnull @.str)
  br label %9

9:                                                ; preds = %6, %8
  store i8 0, ptr @ShenandoahPacing, align 1
  br label %10

10:                                               ; preds = %1, %3, %9
  %11 = load i8, ptr @ShenandoahDegeneratedGC, align 1
  %12 = trunc i8 %11 to i1
  br i1 %12, label %19, label %13

13:                                               ; preds = %10
  %14 = tail call noundef zeroext i1 @_ZN7JVMFlag10is_defaultE12JVMFlagsEnum(i32 noundef 1030) #4
  br i1 %14, label %15, label %19

15:                                               ; preds = %13
  %16 = load volatile ptr, ptr getelementptr inbounds (i8, ptr @_ZN16LogTagSetMappingILN6LogTag4typeE49ELS1_0ELS1_0ELS1_0ELS1_0ELS1_0EE7_tagsetE, i64 64), align 8
  %.not1 = icmp eq ptr %16, null
  br i1 %.not1, label %18, label %17

17:                                               ; preds = %15
  tail call void (ptr, ...) @_ZN7LogImplILN6LogTag4typeE49ELS1_0ELS1_0ELS1_0ELS1_0ELS1_0EE5writeILN8LogLevel4typeE3EEEvPKcz(ptr noundef nonnull @.str.4)
  br label %18

18:                                               ; preds = %15, %17
  store i64 0, ptr @ShenandoahEvacReserve, align 8
  br label %19

19:                                               ; preds = %10, %13, %18
  %20 = tail call noundef zeroext i1 @_ZN7JVMFlag10is_defaultE12JVMFlagsEnum(i32 noundef 1055) #4
  br i1 %20, label %21, label %28

21:                                               ; preds = %19
  %22 = load i8, ptr @ShenandoahLoadRefBarrier, align 1
  %23 = trunc i8 %22 to i1
  br i1 %23, label %24, label %28

24:                                               ; preds = %21
  %25 = load volatile ptr, ptr getelementptr inbounds (i8, ptr @_ZN16LogTagSetMappingILN6LogTag4typeE49ELS1_0ELS1_0ELS1_0ELS1_0ELS1_0EE7_tagsetE, i64 64), align 8
  %.not2 = icmp eq ptr %25, null
  br i1 %.not2, label %27, label %26

26:                                               ; preds = %24
  tail call void (ptr, ...) @_ZN7LogImplILN6LogTag4typeE49ELS1_0ELS1_0ELS1_0ELS1_0ELS1_0EE5writeILN8LogLevel4typeE3EEEvPKcz(ptr noundef nonnull @.str.5)
  br label %27

27:                                               ; preds = %24, %26
  store i8 0, ptr @ShenandoahLoadRefBarrier, align 1
  br label %28

28:                                               ; preds = %27, %21, %19
  %29 = tail call noundef zeroext i1 @_ZN7JVMFlag10is_defaultE12JVMFlagsEnum(i32 noundef 1051) #4
  br i1 %29, label %30, label %37

30:                                               ; preds = %28
  %31 = load i8, ptr @ShenandoahSATBBarrier, align 1
  %32 = trunc i8 %31 to i1
  br i1 %32, label %33, label %37

33:                                               ; preds = %30
  %34 = load volatile ptr, ptr getelementptr inbounds (i8, ptr @_ZN16LogTagSetMappingILN6LogTag4typeE49ELS1_0ELS1_0ELS1_0ELS1_0ELS1_0EE7_tagsetE, i64 64), align 8
  %.not3 = icmp eq ptr %34, null
  br i1 %.not3, label %36, label %35

35:                                               ; preds = %33
  tail call void (ptr, ...) @_ZN7LogImplILN6LogTag4typeE49ELS1_0ELS1_0ELS1_0ELS1_0ELS1_0EE5writeILN8LogLevel4typeE3EEEvPKcz(ptr noundef nonnull @.str.6)
  br label %36

36:                                               ; preds = %33, %35
  store i8 0, ptr @ShenandoahSATBBarrier, align 1
  br label %37

37:                                               ; preds = %36, %30, %28
  %38 = tail call noundef zeroext i1 @_ZN7JVMFlag10is_defaultE12JVMFlagsEnum(i32 noundef 1052) #4
  br i1 %38, label %39, label %46

39:                                               ; preds = %37
  %40 = load i8, ptr @ShenandoahIUBarrier, align 1
  %41 = trunc i8 %40 to i1
  br i1 %41, label %42, label %46

42:                                               ; preds = %39
  %43 = load volatile ptr, ptr getelementptr inbounds (i8, ptr @_ZN16LogTagSetMappingILN6LogTag4typeE49ELS1_0ELS1_0ELS1_0ELS1_0ELS1_0EE7_tagsetE, i64 64), align 8
  %.not4 = icmp eq ptr %43, null
  br i1 %.not4, label %45, label %44

44:                                               ; preds = %42
  tail call void (ptr, ...) @_ZN7LogImplILN6LogTag4typeE49ELS1_0ELS1_0ELS1_0ELS1_0ELS1_0EE5writeILN8LogLevel4typeE3EEEvPKcz(ptr noundef nonnull @.str.7)
  br label %45

45:                                               ; preds = %42, %44
  store i8 0, ptr @ShenandoahIUBarrier, align 1
  br label %46

46:                                               ; preds = %45, %39, %37
  %47 = tail call noundef zeroext i1 @_ZN7JVMFlag10is_defaultE12JVMFlagsEnum(i32 noundef 1053) #4
  br i1 %47, label %48, label %55

48:                                               ; preds = %46
  %49 = load i8, ptr @ShenandoahCASBarrier, align 1
  %50 = trunc i8 %49 to i1
  br i1 %50, label %51, label %55

51:                                               ; preds = %48
  %52 = load volatile ptr, ptr getelementptr inbounds (i8, ptr @_ZN16LogTagSetMappingILN6LogTag4typeE49ELS1_0ELS1_0ELS1_0ELS1_0ELS1_0EE7_tagsetE, i64 64), align 8
  %.not5 = icmp eq ptr %52, null
  br i1 %.not5, label %54, label %53

53:                                               ; preds = %51
  tail call void (ptr, ...) @_ZN7LogImplILN6LogTag4typeE49ELS1_0ELS1_0ELS1_0ELS1_0ELS1_0EE5writeILN8LogLevel4typeE3EEEvPKcz(ptr noundef nonnull @.str.8)
  br label %54

54:                                               ; preds = %51, %53
  store i8 0, ptr @ShenandoahCASBarrier, align 1
  br label %55

55:                                               ; preds = %54, %48, %46
  %56 = tail call noundef zeroext i1 @_ZN7JVMFlag10is_defaultE12JVMFlagsEnum(i32 noundef 1054) #4
  br i1 %56, label %57, label %64

57:                                               ; preds = %55
  %58 = load i8, ptr @ShenandoahCloneBarrier, align 1
  %59 = trunc i8 %58 to i1
  br i1 %59, label %60, label %64

60:                                               ; preds = %57
  %61 = load volatile ptr, ptr getelementptr inbounds (i8, ptr @_ZN16LogTagSetMappingILN6LogTag4typeE49ELS1_0ELS1_0ELS1_0ELS1_0ELS1_0EE7_tagsetE, i64 64), align 8
  %.not6 = icmp eq ptr %61, null
  br i1 %.not6, label %63, label %62

62:                                               ; preds = %60
  tail call void (ptr, ...) @_ZN7LogImplILN6LogTag4typeE49ELS1_0ELS1_0ELS1_0ELS1_0ELS1_0EE5writeILN8LogLevel4typeE3EEEvPKcz(ptr noundef nonnull @.str.9)
  br label %63

63:                                               ; preds = %60, %62
  store i8 0, ptr @ShenandoahCloneBarrier, align 1
  br label %64

64:                                               ; preds = %63, %57, %55
  %65 = tail call noundef zeroext i1 @_ZN7JVMFlag10is_defaultE12JVMFlagsEnum(i32 noundef 1056) #4
  br i1 %65, label %66, label %73

66:                                               ; preds = %64
  %67 = load i8, ptr @ShenandoahStackWatermarkBarrier, align 1
  %68 = trunc i8 %67 to i1
  br i1 %68, label %69, label %73

69:                                               ; preds = %66
  %70 = load volatile ptr, ptr getelementptr inbounds (i8, ptr @_ZN16LogTagSetMappingILN6LogTag4typeE49ELS1_0ELS1_0ELS1_0ELS1_0ELS1_0EE7_tagsetE, i64 64), align 8
  %.not7 = icmp eq ptr %70, null
  br i1 %.not7, label %72, label %71

71:                                               ; preds = %69
  tail call void (ptr, ...) @_ZN7LogImplILN6LogTag4typeE49ELS1_0ELS1_0ELS1_0ELS1_0ELS1_0EE5writeILN8LogLevel4typeE3EEEvPKcz(ptr noundef nonnull @.str.10)
  br label %72

72:                                               ; preds = %69, %71
  store i8 0, ptr @ShenandoahStackWatermarkBarrier, align 1
  br label %73

73:                                               ; preds = %64, %66, %72
  ret void
}